; Function Attrs: mustprogress uwtable
define hidden noundef ptr @_ZN11ast_manager12mk_def_introEP4expr(ptr noundef nonnull align 8 dereferenceable(976) %0, ptr noundef %1) local_unnamed_addr #7 align 2 {
  %3 = alloca ptr, align 8
  call void @llvm.lifetime.start.p0(i64 8, ptr nonnull %3)
  store ptr %1, ptr %3, align 8, !tbaa !124
  %4 = getelementptr inbounds nuw i8, ptr %0, i64 712
  %5 = load i32, ptr %4, align 8, !tbaa !324
  %6 = icmp eq i32 %5, 0
  br i1 %6, label %_ZN11ast_manager8mk_proofEiiP4expr.exit, label %7

7:                                                ; preds = %2
  %8 = getelementptr inbounds nuw i8, ptr %0, i64 704
  %9 = load ptr, ptr %8, align 8, !tbaa !33
  %10 = icmp eq ptr %9, null
  br i1 %10, label %_ZN11ast_manager8mk_proofEiiP4expr.exit, label %_ZNK6vectorIP11decl_pluginLb0EjE3getEjRKS1_.exit.i.i.i.i.i

_ZNK6vectorIP11decl_pluginLb0EjE3getEjRKS1_.exit.i.i.i.i.i: ; preds = %7
  %11 = getelementptr inbounds i8, ptr %9, i64 -4
  %12 = load i32, ptr %11, align 4, !tbaa !24
  %.not.i.i.i.i.i.i.not = icmp eq i32 %12, 0
  br i1 %.not.i.i.i.i.i.i.not, label %_ZN11ast_manager8mk_proofEiiP4expr.exit, label %_ZNK11ast_manager10get_pluginEi.exit.i.i.i.i

_ZNK11ast_manager10get_pluginEi.exit.i.i.i.i:     ; preds = %_ZNK6vectorIP11decl_pluginLb0EjE3getEjRKS1_.exit.i.i.i.i.i
  %.then.val.i.i.i.i.i = load ptr, ptr %9, align 8, !tbaa !37
  %.not.i5.i.i.i = icmp eq ptr %.then.val.i.i.i.i.i, null
  br i1 %.not.i5.i.i.i, label %_ZN11ast_manager8mk_proofEiiP4expr.exit, label %_ZN11ast_manager12mk_func_declEiijPK9parameterjPKP4exprP4sort.exit.i.i.i

_ZN11ast_manager12mk_func_declEiijPK9parameterjPKP4exprP4sort.exit.i.i.i: ; preds = %_ZNK11ast_manager10get_pluginEi.exit.i.i.i.i
  %13 = load ptr, ptr %.then.val.i.i.i.i.i, align 8, !tbaa !39
  %14 = getelementptr inbounds nuw i8, ptr %13, i64 64
  %15 = load ptr, ptr %14, align 8
  %16 = call noundef ptr %15(ptr noundef nonnull align 8 dereferenceable(20) %.then.val.i.i.i.i.i, i32 noundef 47, i32 noundef 0, ptr noundef null, i32 noundef 1, ptr noundef nonnull %3, ptr noundef null)
  %.not.i.i.i.i = icmp eq ptr %16, null
  br i1 %.not.i.i.i.i, label %_ZN11ast_manager8mk_proofEiiP4expr.exit, label %17

17:                                               ; preds = %_ZN11ast_manager12mk_func_declEiijPK9parameterjPKP4exprP4sort.exit.i.i.i
  %18 = call noundef ptr @_ZN11ast_manager6mk_appEP9func_decljPKP4expr(ptr noundef nonnull align 8 dereferenceable(976) %0, ptr noundef nonnull %16, i32 noundef 1, ptr noundef nonnull %3)
  br label %_ZN11ast_manager8mk_proofEiiP4expr.exit

_ZN11ast_manager8mk_proofEiiP4expr.exit:          ; preds = %2, %7, %_ZNK6vectorIP11decl_pluginLb0EjE3getEjRKS1_.exit.i.i.i.i.i, %_ZNK11ast_manager10get_pluginEi.exit.i.i.i.i, %_ZN11ast_manager12mk_func_declEiijPK9parameterjPKP4exprP4sort.exit.i.i.i, %17
  %.0.i.i = phi ptr [ null, %2 ], [ %18, %17 ], [ null, %_ZN11ast_manager12mk_func_declEiijPK9parameterjPKP4exprP4sort.exit.i.i.i ], [ null, %_ZNK11ast_manager10get_pluginEi.exit.i.i.i.i ], [ null, %_ZNK6vectorIP11decl_pluginLb0EjE3getEjRKS1_.exit.i.i.i.i.i ], [ null, %7 ]
  call void @llvm.lifetime.end.p0(i64 8, ptr nonnull %3)
  ret ptr %.0.i.i
}